; Function Attrs: null_pointer_is_valid sspstrong uwtable
define internal zeroext i1 @commview_ncfx_read(ptr noundef readonly captures(none) %0, ptr noundef %1, ptr noundef %2, ptr noundef %3, ptr noundef writeonly captures(none) initializes((0, 8)) %4) #0 {
  %6 = load ptr, ptr %0, align 8
  %7 = tail call i64 @file_tell(ptr noundef %6)
  store i64 %7, ptr %4, align 8
  %8 = load ptr, ptr %0, align 8
  %9 = tail call fastcc i32 @commview_ncfx_read_packet(ptr noundef %8, ptr noundef %1, ptr noundef %2, ptr noundef %3)
  %10 = icmp ne i32 %9, 0
  ret i1 %10
}